; ModuleID = 'bench/llvm/original/MCLabel.cpp.ll'
source_filename = "bench/llvm/original/MCLabel.cpp.ll"
target datalayout = "e-m:e-p270:32:32-p271:32:32-p272:64:64-i64:64-i128:128-f80:128-n8:16:32:64-S128"
target triple = "x86_64-pc-linux-gnu"

; Function Attrs: mustprogress nounwind uwtable
define dso_local void @_ZNK4llvm7MCLabel5printERNS_11raw_ostreamE(ptr nocapture noundef nonnull readonly align 4 dereferenceable(4) %0, ptr noundef nonnull align 8 dereferenceable(48) %1) local_unnamed_addr #0 align 2 {
  %3 = getelementptr inbounds nuw i8, ptr %1, i64 32
  %4 = load ptr, ptr %3, align 8
  %5 = getelementptr inbounds nuw i8, ptr %1, i64 24
  %6 = load ptr, ptr %5, align 8
  %.not.i = icmp ult ptr %4, %6
  br i1 %.not.i, label %9, label %7

7:                                                ; preds = %2
  %8 = tail call noundef nonnull align 8 dereferenceable(48) ptr @_ZN4llvm11raw_ostream5writeEh(ptr noundef nonnull align 8 dereferenceable(48) %1, i8 noundef zeroext 34) #2
  br label %_ZN4llvm11raw_ostreamlsEc.exit

9:                                                ; preds = %2
  %10 = getelementptr inbounds i8, ptr %4, i64 1
  store ptr %10, ptr %3, align 8
  store i8 34, ptr %4, align 1
  br label %_ZN4llvm11raw_ostreamlsEc.exit

_ZN4llvm11raw_ostreamlsEc.exit:                   ; preds = %7, %9
  %.0.i = phi ptr [ %8, %7 ], [ %1, %9 ]
  %11 = load i32, ptr %0, align 4
  %12 = zext i32 %11 to i64
  %13 = tail call noundef nonnull align 8 dereferenceable(48) ptr @_ZN4llvm11raw_ostreamlsEm(ptr noundef nonnull align 8 dereferenceable(48) %.0.i, i64 noundef %12) #2
  %14 = getelementptr inbounds nuw i8, ptr %13, i64 32
  %15 = load ptr, ptr %14, align 8
  %16 = getelementptr inbounds nuw i8, ptr %13, i64 24
  %17 = load ptr, ptr %16, align 8
  %.not.i2 = icmp ult ptr %15, %17
  br i1 %.not.i2, label %20, label %18

18:                                               ; preds = %_ZN4llvm11raw_ostreamlsEc.exit
  %19 = tail call noundef nonnull align 8 dereferenceable(48) ptr @_ZN4llvm11raw_ostream5writeEh(ptr noundef nonnull align 8 dereferenceable(48) %13, i8 noundef zeroext 34) #2
  br label %_ZN4llvm11raw_ostreamlsEc.exit4

20:                                               ; preds = %_ZN4llvm11raw_ostreamlsEc.exit
  %21 = getelementptr inbounds i8, ptr %15, i64 1
  store ptr %21, ptr %14, align 8
  store i8 34, ptr %15, align 1
  br label %_ZN4llvm11raw_ostreamlsEc.exit4

_ZN4llvm11raw_ostreamlsEc.exit4:                  ; preds = %18, %20
  ret void
}

declare noundef nonnull align 8 dereferenceable(48) ptr @_ZN4llvm11raw_ostream5writeEh(ptr noundef nonnull align 8 dereferenceable(48), i8 noundef zeroext) local_unnamed_addr #1

declare noundef nonnull align 8 dereferenceable(48) ptr @_ZN4llvm11raw_ostreamlsEm(ptr noundef nonnull align 8 dereferenceable(48), i64 noundef) local_unnamed_addr #1


!llvm.module.flags = !{!0, !1, !2, !3}

!0 = !{i32 1, !"wchar_size", i32 4}
!1 = !{i32 8, !"PIC Level", i32 2}
!2 = !{i32 7, !"uwtable", i32 2}
!3 = !{i32 7, !"frame-pointer", i32 2}
